target datalayout = "e-m:e-p270:32:32-p271:32:32-p272:64:64-i64:64-i128:128-f80:128-n8:16:32:64-S128"
target triple = "x86_64-pc-linux-gnu"

%"class.Json::Features" = type { i8, i8, i8, i8 }
%"class.Json::Reader" = type <{ %"class.std::stack", %"class.std::deque.0", %"class.std::__cxx11::basic_string", ptr, ptr, ptr, ptr, ptr, %"class.std::__cxx11::basic_string", %"class.Json::Features", i8, [3 x i8] }>
%"class.std::stack" = type { %"class.std::deque" }
%"class.std::deque" = type { %"class.std::_Deque_base" }
%"class.std::_Deque_base" = type { %"struct.std::_Deque_base<Json::Value *, std::allocator<Json::Value *>>::_Deque_impl" }
%"struct.std::_Deque_base<Json::Value *, std::allocator<Json::Value *>>::_Deque_impl" = type { %"struct.std::_Deque_base<Json::Value *, std::allocator<Json::Value *>>::_Deque_impl_data" }
%"struct.std::_Deque_base<Json::Value *, std::allocator<Json::Value *>>::_Deque_impl_data" = type { ptr, i64, %"struct.std::_Deque_iterator", %"struct.std::_Deque_iterator" }
%"struct.std::_Deque_iterator" = type { ptr, ptr, ptr, ptr }
%"class.std::deque.0" = type { %"class.std::_Deque_base.1" }
%"class.std::_Deque_base.1" = type { %"struct.std::_Deque_base<Json::Reader::ErrorInfo, std::allocator<Json::Reader::ErrorInfo>>::_Deque_impl" }
%"struct.std::_Deque_base<Json::Reader::ErrorInfo, std::allocator<Json::Reader::ErrorInfo>>::_Deque_impl" = type { %"struct.std::_Deque_base<Json::Reader::ErrorInfo, std::allocator<Json::Reader::ErrorInfo>>::_Deque_impl_data" }
%"struct.std::_Deque_base<Json::Reader::ErrorInfo, std::allocator<Json::Reader::ErrorInfo>>::_Deque_impl_data" = type { ptr, i64, %"struct.std::_Deque_iterator.5", %"struct.std::_Deque_iterator.5" }
%"struct.std::_Deque_iterator.5" = type { ptr, ptr, ptr, ptr }
%"class.std::__cxx11::basic_string" = type { %"struct.std::__cxx11::basic_string<char>::_Alloc_hider", i64, %union.anon }
%"struct.std::__cxx11::basic_string<char>::_Alloc_hider" = type { ptr }
%union.anon = type { i64, [8 x i8] }
%"class.Json::Reader::Token" = type { i32, ptr, ptr }
%"class.Json::Reader::ErrorInfo" = type { %"class.Json::Reader::Token", %"class.std::__cxx11::basic_string", ptr }

; Function Attrs: mustprogress uwtable
define linkonce_odr dso_local void @_ZN4Json6Reader9ErrorInfoC2ERKS1_(ptr noundef nonnull align 8 dereferenceable(64) %0, ptr noundef nonnull align 8 dereferenceable(64) %1) unnamed_addr #5 comdat align 2 {
  %3 = alloca ptr, align 8
  %4 = alloca ptr, align 8
  store ptr %0, ptr %3, align 8
  store ptr %1, ptr %4, align 8
  %5 = load ptr, ptr %3, align 8
  %6 = getelementptr inbounds %"class.Json::Reader::ErrorInfo", ptr %5, i32 0, i32 0
  %7 = load ptr, ptr %4, align 8
  %8 = getelementptr inbounds %"class.Json::Reader::ErrorInfo", ptr %7, i32 0, i32 0
  call void @llvm.memcpy.p0.p0.i64(ptr align 8 %6, ptr align 8 %8, i64 24, i1 false)
  %9 = getelementptr inbounds %"class.Json::Reader::ErrorInfo", ptr %5, i32 0, i32 1
  %10 = load ptr, ptr %4, align 8
  %11 = getelementptr inbounds %"class.Json::Reader::ErrorInfo", ptr %10, i32 0, i32 1
  call void @_ZNSt7__cxx1112basic_stringIcSt11char_traitsIcESaIcEEC1ERKS4_(ptr noundef nonnull align 8 dereferenceable(32) %9, ptr noundef nonnull align 8 dereferenceable(32) %11)
  %12 = getelementptr inbounds %"class.Json::Reader::ErrorInfo", ptr %5, i32 0, i32 2
  %13 = load ptr, ptr %4, align 8
  %14 = getelementptr inbounds %"class.Json::Reader::ErrorInfo", ptr %13, i32 0, i32 2
  %15 = load ptr, ptr %14, align 8
  store ptr %15, ptr %12, align 8
  ret void
}

; Function Attrs: mustprogress uwtable
define linkonce_odr dso_local void @_ZNSt15__new_allocatorIN4Json6Reader9ErrorInfoEE9constructIS2_JRKS2_EEEvPT_DpOT0_(ptr noundef nonnull align 1 dereferenceable(1) %0, ptr noundef %1, ptr noundef nonnull align 8 dereferenceable(64) %2) #5 comdat align 2 {
  %4 = alloca ptr, align 8
  %5 = alloca ptr, align 8
  %6 = alloca ptr, align 8
  store ptr %0, ptr %4, align 8
  store ptr %1, ptr %5, align 8
  store ptr %2, ptr %6, align 8
  %7 = load ptr, ptr %5, align 8
  %8 = load ptr, ptr %6, align 8
  call void @_ZN4Json6Reader9ErrorInfoC2ERKS1_(ptr noundef nonnull align 8 dereferenceable(64) %7, ptr noundef nonnull align 8 dereferenceable(64) %8)
  ret void
}

; Function Attrs: mustprogress uwtable
define linkonce_odr dso_local void @_ZNSt16allocator_traitsISaIN4Json6Reader9ErrorInfoEEE9constructIS2_JRKS2_EEEvRS3_PT_DpOT0_(ptr noundef nonnull align 1 dereferenceable(1) %0, ptr noundef %1, ptr noundef nonnull align 8 dereferenceable(64) %2) #5 comdat align 2 {
  %4 = alloca ptr, align 8
  %5 = alloca ptr, align 8
  %6 = alloca ptr, align 8
  store ptr %0, ptr %4, align 8
  store ptr %1, ptr %5, align 8
  store ptr %2, ptr %6, align 8
  %7 = load ptr, ptr %4, align 8
  %8 = load ptr, ptr %5, align 8
  %9 = load ptr, ptr %6, align 8
  call void @_ZNSt15__new_allocatorIN4Json6Reader9ErrorInfoEE9constructIS2_JRKS2_EEEvPT_DpOT0_(ptr noundef nonnull align 1 dereferenceable(1) %7, ptr noundef %8, ptr noundef nonnull align 8 dereferenceable(64) %9)
  ret void
}

; Function Attrs: mustprogress nounwind uwtable
define linkonce_odr dso_local void @_ZN4Json6Reader9ErrorInfoD2Ev(ptr noundef nonnull align 8 dereferenceable(64) %0) unnamed_addr #4 comdat align 2 {
  %2 = alloca ptr, align 8
  store ptr %0, ptr %2, align 8
  %3 = load ptr, ptr %2, align 8
  %4 = getelementptr inbounds %"class.Json::Reader::ErrorInfo", ptr %3, i32 0, i32 1
  call void @_ZNSt7__cxx1112basic_stringIcSt11char_traitsIcESaIcEED1Ev(ptr noundef nonnull align 8 dereferenceable(32) %4) #3
  ret void
}

; Function Attrs: mustprogress uwtable
define linkonce_odr dso_local void @_ZNSt5dequeIN4Json6Reader9ErrorInfoESaIS2_EE9push_backERKS2_(ptr noundef nonnull align 8 dereferenceable(80) %0, ptr noundef nonnull align 8 dereferenceable(64) %1) #5 comdat align 2 {
  %3 = alloca ptr, align 8
  %4 = alloca ptr, align 8
  store ptr %0, ptr %3, align 8
  store ptr %1, ptr %4, align 8
  %5 = load ptr, ptr %3, align 8
  %6 = getelementptr inbounds %"class.std::_Deque_base.1", ptr %5, i32 0, i32 0
  %7 = getelementptr inbounds %"struct.std::_Deque_base<Json::Reader::ErrorInfo, std::allocator<Json::Reader::ErrorInfo>>::_Deque_impl_data", ptr %6, i32 0, i32 3
  %8 = getelementptr inbounds %"struct.std::_Deque_iterator.5", ptr %7, i32 0, i32 0
  %9 = load ptr, ptr %8, align 8
  %10 = getelementptr inbounds %"class.std::_Deque_base.1", ptr %5, i32 0, i32 0
  %11 = getelementptr inbounds %"struct.std::_Deque_base<Json::Reader::ErrorInfo, std::allocator<Json::Reader::ErrorInfo>>::_Deque_impl_data", ptr %10, i32 0, i32 3
  %12 = getelementptr inbounds %"struct.std::_Deque_iterator.5", ptr %11, i32 0, i32 2
  %13 = load ptr, ptr %12, align 8
  %14 = getelementptr inbounds %"class.Json::Reader::ErrorInfo", ptr %13, i64 -1
  %15 = icmp ne ptr %9, %14
  br i1 %15, label %16, label %28

16:                                               ; preds = %2
  %17 = getelementptr inbounds %"class.std::_Deque_base.1", ptr %5, i32 0, i32 0
  %18 = getelementptr inbounds %"class.std::_Deque_base.1", ptr %5, i32 0, i32 0
  %19 = getelementptr inbounds %"struct.std::_Deque_base<Json::Reader::ErrorInfo, std::allocator<Json::Reader::ErrorInfo>>::_Deque_impl_data", ptr %18, i32 0, i32 3
  %20 = getelementptr inbounds %"struct.std::_Deque_iterator.5", ptr %19, i32 0, i32 0
  %21 = load ptr, ptr %20, align 8
  %22 = load ptr, ptr %4, align 8
  call void @_ZNSt16allocator_traitsISaIN4Json6Reader9ErrorInfoEEE9constructIS2_JRKS2_EEEvRS3_PT_DpOT0_(ptr noundef nonnull align 1 dereferenceable(1) %17, ptr noundef %21, ptr noundef nonnull align 8 dereferenceable(64) %22)
  %23 = getelementptr inbounds %"class.std::_Deque_base.1", ptr %5, i32 0, i32 0
  %24 = getelementptr inbounds %"struct.std::_Deque_base<Json::Reader::ErrorInfo, std::allocator<Json::Reader::ErrorInfo>>::_Deque_impl_data", ptr %23, i32 0, i32 3
  %25 = getelementptr inbounds %"struct.std::_Deque_iterator.5", ptr %24, i32 0, i32 0
  %26 = load ptr, ptr %25, align 8
  %27 = getelementptr inbounds %"class.Json::Reader::ErrorInfo", ptr %26, i32 1
  store ptr %27, ptr %25, align 8
  br label %30

28:                                               ; preds = %2
  %29 = load ptr, ptr %4, align 8
  call void @_ZNSt5dequeIN4Json6Reader9ErrorInfoESaIS2_EE16_M_push_back_auxIJRKS2_EEEvDpOT_(ptr noundef nonnull align 8 dereferenceable(80) %5, ptr noundef nonnull align 8 dereferenceable(64) %29)
  br label %30

30:                                               ; preds = %28, %16
  ret void
}

; Function Attrs: mustprogress nounwind uwtable
define linkonce_odr dso_local void @_ZN4Json6Reader9ErrorInfoC2Ev(ptr noundef nonnull align 8 dereferenceable(64) %0) unnamed_addr #4 comdat align 2 {
  %2 = alloca ptr, align 8
  store ptr %0, ptr %2, align 8
  %3 = load ptr, ptr %2, align 8
  %4 = getelementptr inbounds %"class.Json::Reader::ErrorInfo", ptr %3, i32 0, i32 1
  call void @_ZNSt7__cxx1112basic_stringIcSt11char_traitsIcESaIcEEC1Ev(ptr noundef nonnull align 8 dereferenceable(32) %4) #3
  ret void
}

; Function Attrs: mustprogress uwtable
define dso_local noundef zeroext i1 @_ZN4Json6Reader9pushErrorERKNS_5ValueERKNSt7__cxx1112basic_stringIcSt11char_traitsIcESaIcEEES3_(ptr noundef nonnull align 8 dereferenceable(269) %0, ptr noundef nonnull align 8 dereferenceable(40) %1, ptr noundef nonnull align 8 dereferenceable(32) %2, ptr noundef nonnull align 8 dereferenceable(40) %3) #5 align 2 personality ptr @__gxx_personality_v0 {
  %5 = alloca i1, align 1
  %6 = alloca ptr, align 8
  %7 = alloca ptr, align 8
  %8 = alloca ptr, align 8
  %9 = alloca ptr, align 8
  %10 = alloca i64, align 8
  %11 = alloca %"class.Json::Reader::Token", align 8
  %12 = alloca %"class.Json::Reader::ErrorInfo", align 8
  %13 = alloca ptr, align 8
  %14 = alloca i32, align 4
  store ptr %0, ptr %6, align 8
  store ptr %1, ptr %7, align 8
  store ptr %2, ptr %8, align 8
  store ptr %3, ptr %9, align 8
  %15 = load ptr, ptr %6, align 8
  %16 = getelementptr inbounds %"class.Json::Reader", ptr %15, i32 0, i32 4
  %17 = load ptr, ptr %16, align 8
  %18 = getelementptr inbounds %"class.Json::Reader", ptr %15, i32 0, i32 3
  %19 = load ptr, ptr %18, align 8
  %20 = ptrtoint ptr %17 to i64
  %21 = ptrtoint ptr %19 to i64
  %22 = sub i64 %20, %21
  store i64 %22, ptr %10, align 8
  %23 = load ptr, ptr %7, align 8
  %24 = call noundef i64 @_ZNK4Json5Value14getOffsetStartEv(ptr noundef nonnull align 8 dereferenceable(40) %23)
  %25 = load i64, ptr %10, align 8
  %26 = icmp sgt i64 %24, %25
  br i1 %26, label %37, label %27

27:                                               ; preds = %4
  %28 = load ptr, ptr %7, align 8
  %29 = call noundef i64 @_ZNK4Json5Value14getOffsetLimitEv(ptr noundef nonnull align 8 dereferenceable(40) %28)
  %30 = load i64, ptr %10, align 8
  %31 = icmp sgt i64 %29, %30
  br i1 %31, label %37, label %32

32:                                               ; preds = %27
  %33 = load ptr, ptr %9, align 8
  %34 = call noundef i64 @_ZNK4Json5Value14getOffsetLimitEv(ptr noundef nonnull align 8 dereferenceable(40) %33)
  %35 = load i64, ptr %10, align 8
  %36 = icmp sgt i64 %34, %35
  br i1 %36, label %37, label %38

37:                                               ; preds = %32, %27, %4
  store i1 false, ptr %5, align 1
  br label %70

38:                                               ; preds = %32
  %39 = getelementptr inbounds %"class.Json::Reader::Token", ptr %11, i32 0, i32 0
  store i32 13, ptr %39, align 8
  %40 = getelementptr inbounds %"class.Json::Reader", ptr %15, i32 0, i32 3
  %41 = load ptr, ptr %40, align 8
  %42 = load ptr, ptr %7, align 8
  %43 = call noundef i64 @_ZNK4Json5Value14getOffsetStartEv(ptr noundef nonnull align 8 dereferenceable(40) %42)
  %44 = getelementptr inbounds i8, ptr %41, i64 %43
  %45 = getelementptr inbounds %"class.Json::Reader::Token", ptr %11, i32 0, i32 1
  store ptr %44, ptr %45, align 8
  %46 = getelementptr inbounds %"class.Json::Reader", ptr %15, i32 0, i32 3
  %47 = load ptr, ptr %46, align 8
  %48 = load ptr, ptr %7, align 8
  %49 = call noundef i64 @_ZNK4Json5Value14getOffsetLimitEv(ptr noundef nonnull align 8 dereferenceable(40) %48)
  %50 = getelementptr inbounds i8, ptr %47, i64 %49
  %51 = getelementptr inbounds %"class.Json::Reader::Token", ptr %11, i32 0, i32 2
  store ptr %50, ptr %51, align 8
  call void @_ZN4Json6Reader9ErrorInfoC2Ev(ptr noundef nonnull align 8 dereferenceable(64) %12) #3
  %52 = getelementptr inbounds %"class.Json::Reader::ErrorInfo", ptr %12, i32 0, i32 0
  call void @llvm.memcpy.p0.p0.i64(ptr align 8 %52, ptr align 8 %11, i64 24, i1 false)
  %53 = load ptr, ptr %8, align 8
  %54 = getelementptr inbounds %"class.Json::Reader::ErrorInfo", ptr %12, i32 0, i32 1
  %55 = invoke noundef nonnull align 8 dereferenceable(32) ptr @_ZNSt7__cxx1112basic_stringIcSt11char_traitsIcESaIcEEaSERKS4_(ptr noundef nonnull align 8 dereferenceable(32) %54, ptr noundef nonnull align 8 dereferenceable(32) %53)
          to label %56 unwind label %66

56:                                               ; preds = %38
  %57 = getelementptr inbounds %"class.Json::Reader", ptr %15, i32 0, i32 3
  %58 = load ptr, ptr %57, align 8
  %59 = load ptr, ptr %9, align 8
  %60 = invoke noundef i64 @_ZNK4Json5Value14getOffsetStartEv(ptr noundef nonnull align 8 dereferenceable(40) %59)
          to label %61 unwind label %66

61:                                               ; preds = %56
  %62 = getelementptr inbounds i8, ptr %58, i64 %60
  %63 = getelementptr inbounds %"class.Json::Reader::ErrorInfo", ptr %12, i32 0, i32 2
  store ptr %62, ptr %63, align 8
  %64 = getelementptr inbounds %"class.Json::Reader", ptr %15, i32 0, i32 1
  invoke void @_ZNSt5dequeIN4Json6Reader9ErrorInfoESaIS2_EE9push_backERKS2_(ptr noundef nonnull align 8 dereferenceable(80) %64, ptr noundef nonnull align 8 dereferenceable(64) %12)
          to label %65 unwind label %66

65:                                               ; preds = %61
  store i1 true, ptr %5, align 1
  call void @_ZN4Json6Reader9ErrorInfoD2Ev(ptr noundef nonnull align 8 dereferenceable(64) %12) #3
  br label %70

66:                                               ; preds = %61, %56, %38
  %67 = landingpad { ptr, i32 }
          cleanup
  %68 = extractvalue { ptr, i32 } %67, 0
  store ptr %68, ptr %13, align 8
  %69 = extractvalue { ptr, i32 } %67, 1
  store i32 %69, ptr %14, align 4
  call void @_ZN4Json6Reader9ErrorInfoD2Ev(ptr noundef nonnull align 8 dereferenceable(64) %12) #3
  br label %72

70:                                               ; preds = %65, %37
  %71 = load i1, ptr %5, align 1
  ret i1 %71

72:                                               ; preds = %66
  %73 = load ptr, ptr %13, align 8
  %74 = load i32, ptr %14, align 4
  %75 = insertvalue { ptr, i32 } poison, ptr %73, 0
  %76 = insertvalue { ptr, i32 } %75, i32 %74, 1
  resume { ptr, i32 } %76
}