; Function Attrs: mustprogress uwtable
define dso_local noundef zeroext i1 @_ZN4Json6Reader9pushErrorERKNS_5ValueERKNSt7__cxx1112basic_stringIcSt11char_traitsIcESaIcEEES3_(ptr noundef nonnull align 8 dereferenceable(269) %0, ptr noundef nonnull align 8 dereferenceable(40) %1, ptr noundef nonnull align 8 dereferenceable(32) %2, ptr noundef nonnull align 8 dereferenceable(40) %3) local_unnamed_addr #6 align 2 personality ptr @__gxx_personality_v0 {
  %5 = alloca %"class.Json::Reader::ErrorInfo", align 8
  %6 = getelementptr inbounds i8, ptr %0, i64 200
  %7 = load ptr, ptr %6, align 8
  %8 = getelementptr inbounds i8, ptr %0, i64 192
  %9 = load ptr, ptr %8, align 8
  %10 = ptrtoint ptr %7 to i64
  %11 = ptrtoint ptr %9 to i64
  %12 = sub i64 %10, %11
  %13 = tail call noundef i64 @_ZNK4Json5Value14getOffsetStartEv(ptr noundef nonnull align 8 dereferenceable(40) %1)
  %14 = icmp sgt i64 %13, %12
  br i1 %14, label %51, label %15

15:                                               ; preds = %4
  %16 = tail call noundef i64 @_ZNK4Json5Value14getOffsetLimitEv(ptr noundef nonnull align 8 dereferenceable(40) %1)
  %17 = icmp sgt i64 %16, %12
  br i1 %17, label %51, label %18

18:                                               ; preds = %15
  %19 = tail call noundef i64 @_ZNK4Json5Value14getOffsetLimitEv(ptr noundef nonnull align 8 dereferenceable(40) %3)
  %20 = icmp sgt i64 %19, %12
  br i1 %20, label %51, label %21

21:                                               ; preds = %18
  %22 = load ptr, ptr %8, align 8
  %23 = tail call noundef i64 @_ZNK4Json5Value14getOffsetStartEv(ptr noundef nonnull align 8 dereferenceable(40) %1)
  %24 = getelementptr inbounds i8, ptr %22, i64 %23
  %25 = load ptr, ptr %8, align 8
  %26 = tail call noundef i64 @_ZNK4Json5Value14getOffsetLimitEv(ptr noundef nonnull align 8 dereferenceable(40) %1)
  %27 = getelementptr inbounds i8, ptr %25, i64 %26
  %28 = getelementptr inbounds i8, ptr %5, i64 24
  call void @_ZNSt7__cxx1112basic_stringIcSt11char_traitsIcESaIcEEC1Ev(ptr noundef nonnull align 8 dereferenceable(32) %28) #25
  store i32 13, ptr %5, align 8
  %.sroa.21.0..sroa_idx = getelementptr inbounds i8, ptr %5, i64 8
  store ptr %24, ptr %.sroa.21.0..sroa_idx, align 8
  %.sroa.3.0..sroa_idx = getelementptr inbounds i8, ptr %5, i64 16
  store ptr %27, ptr %.sroa.3.0..sroa_idx, align 8
  %29 = invoke noundef nonnull align 8 dereferenceable(32) ptr @_ZNSt7__cxx1112basic_stringIcSt11char_traitsIcESaIcEEaSERKS4_(ptr noundef nonnull align 8 dereferenceable(32) %28, ptr noundef nonnull align 8 dereferenceable(32) %2)
          to label %30 unwind label %49

30:                                               ; preds = %21
  %31 = load ptr, ptr %8, align 8
  %32 = invoke noundef i64 @_ZNK4Json5Value14getOffsetStartEv(ptr noundef nonnull align 8 dereferenceable(40) %3)
          to label %33 unwind label %49

33:                                               ; preds = %30
  %34 = getelementptr inbounds i8, ptr %31, i64 %32
  %35 = getelementptr inbounds i8, ptr %5, i64 56
  store ptr %34, ptr %35, align 8
  %36 = getelementptr inbounds i8, ptr %0, i64 128
  %37 = load ptr, ptr %36, align 8
  %38 = getelementptr inbounds i8, ptr %0, i64 144
  %39 = load ptr, ptr %38, align 8
  %40 = getelementptr inbounds i8, ptr %39, i64 -64
  %.not.i = icmp eq ptr %37, %40
  br i1 %.not.i, label %47, label %41

41:                                               ; preds = %33
  call void @llvm.memcpy.p0.p0.i64(ptr noundef nonnull align 8 dereferenceable(24) %37, ptr noundef nonnull align 8 dereferenceable(24) %5, i64 24, i1 false)
  %42 = getelementptr inbounds i8, ptr %37, i64 24
  invoke void @_ZNSt7__cxx1112basic_stringIcSt11char_traitsIcESaIcEEC1ERKS4_(ptr noundef nonnull align 8 dereferenceable(32) %42, ptr noundef nonnull align 8 dereferenceable(32) %28)
          to label %.noexc unwind label %49

.noexc:                                           ; preds = %41
  %43 = getelementptr inbounds i8, ptr %37, i64 56
  %44 = load ptr, ptr %35, align 8
  store ptr %44, ptr %43, align 8
  %45 = load ptr, ptr %36, align 8
  %46 = getelementptr inbounds i8, ptr %45, i64 64
  store ptr %46, ptr %36, align 8
  br label %_ZNSt5dequeIN4Json6Reader9ErrorInfoESaIS2_EE9push_backERKS2_.exit

47:                                               ; preds = %33
  %48 = getelementptr inbounds i8, ptr %0, i64 80
  invoke void @_ZNSt5dequeIN4Json6Reader9ErrorInfoESaIS2_EE16_M_push_back_auxIJRKS2_EEEvDpOT_(ptr noundef nonnull align 8 dereferenceable(80) %48, ptr noundef nonnull align 8 dereferenceable(64) %5)
          to label %_ZNSt5dequeIN4Json6Reader9ErrorInfoESaIS2_EE9push_backERKS2_.exit unwind label %49

_ZNSt5dequeIN4Json6Reader9ErrorInfoESaIS2_EE9push_backERKS2_.exit: ; preds = %.noexc, %47
  call void @_ZNSt7__cxx1112basic_stringIcSt11char_traitsIcESaIcEED1Ev(ptr noundef nonnull align 8 dereferenceable(32) %28) #25
  br label %51

49:                                               ; preds = %47, %41, %30, %21
  %50 = landingpad { ptr, i32 }
          cleanup
  call void @_ZNSt7__cxx1112basic_stringIcSt11char_traitsIcESaIcEED1Ev(ptr noundef nonnull align 8 dereferenceable(32) %28) #25
  resume { ptr, i32 } %50

51:                                               ; preds = %4, %15, %18, %_ZNSt5dequeIN4Json6Reader9ErrorInfoESaIS2_EE9push_backERKS2_.exit
  %.0 = phi i1 [ true, %_ZNSt5dequeIN4Json6Reader9ErrorInfoESaIS2_EE9push_backERKS2_.exit ], [ false, %18 ], [ false, %15 ], [ false, %4 ]
  ret i1 %.0
}